target datalayout = "e-m:e-p270:32:32-p271:32:32-p272:64:64-i64:64-i128:128-f80:128-n8:16:32:64-S128"
target triple = "x86_64-pc-linux-gnu"

%struct.pkcs12_attr = type { ptr, ptr }

@enc_default = internal constant { i32, [4 x i8], ptr, i32, [4 x i8] } { i32 146, [4 x i8] zeroinitializer, ptr @.str.47, i32 1000, [4 x i8] zeroinitializer }, align 8
@ATTRS1 = internal constant [4 x %struct.pkcs12_attr] [%struct.pkcs12_attr { ptr @.str.56, ptr @.str.57 }, %struct.pkcs12_attr { ptr @.str.58, ptr @.str.59 }, %struct.pkcs12_attr { ptr @.str.60, ptr @.str.61 }, %struct.pkcs12_attr zeroinitializer], align 16
@.str.78 = private unnamed_addr constant [14 x i8] c"1keyattrs.p12\00", align 1

; Function Attrs: nounwind uwtable
define internal i32 @test_single_key_with_attrs() #0 {
  %1 = alloca ptr, align 8
  call void @llvm.lifetime.start.p0(i64 8, ptr %1) #4
  %2 = call ptr @new_pkcs12_builder(ptr noundef @.str.78)
  store ptr %2, ptr %1, align 8, !tbaa !15
  %3 = load ptr, ptr %1, align 8, !tbaa !15
  call void @start_pkcs12(ptr noundef %3)
  %4 = load ptr, ptr %1, align 8, !tbaa !15
  call void @start_contentinfo(ptr noundef %4)
  %5 = load ptr, ptr %1, align 8, !tbaa !15
  call void @add_keybag(ptr noundef %5, ptr noundef @KEY1, i32 noundef 609, ptr noundef @ATTRS1, ptr noundef @enc_default)
  %6 = load ptr, ptr %1, align 8, !tbaa !15
  call void @end_contentinfo(ptr noundef %6)
  %7 = load ptr, ptr %1, align 8, !tbaa !15
  call void @end_pkcs12(ptr noundef %7)
  %8 = load ptr, ptr %1, align 8, !tbaa !15
  call void @start_check_pkcs12(ptr noundef %8)
  %9 = load ptr, ptr %1, align 8, !tbaa !15
  call void @start_check_contentinfo(ptr noundef %9)
  %10 = load ptr, ptr %1, align 8, !tbaa !15
  call void @check_keybag(ptr noundef %10, ptr noundef @KEY1, i32 noundef 609, ptr noundef @ATTRS1, ptr noundef @enc_default)
  %11 = load ptr, ptr %1, align 8, !tbaa !15
  call void @end_check_contentinfo(ptr noundef %11)
  %12 = load ptr, ptr %1, align 8, !tbaa !15
  call void @end_check_pkcs12(ptr noundef %12)
  %13 = load ptr, ptr %1, align 8, !tbaa !15
  %14 = call i32 @end_pkcs12_builder(ptr noundef %13)
  call void @llvm.lifetime.end.p0(i64 8, ptr %1) #4
  ret i32 %14
}